target datalayout = "e-m:e-p270:32:32-p271:32:32-p272:64:64-i64:64-i128:128-f80:128-n8:16:32:64-S128"
target triple = "x86_64-pc-linux-gnu"

%struct.pmix_globals_t = type { i32, %struct.pmix_proc, %struct.pmix_value, %struct.pmix_value, ptr, i32, i32, ptr, i32, i32, i32, i32, i32, ptr, ptr, i32, %struct.pmix_events_t, i8, i8, %struct.timeval, %struct.pmix_list_t, %struct.pmix_pointer_array_t, i32, i32, %struct.pmix_hotel_t, i8, %struct.pmix_list_t, i8, i8, i8, i64, %struct.pmix_list_t, %struct.pmix_topology_t, %struct.pmix_cpuset_t, i8, i8, %struct.pmix_iof_flags_t, %struct.pmix_keyindex_t }
%struct.pmix_proc = type { [256 x i8], i32 }
%struct.pmix_value = type { i16, %union.anon.9 }
%union.anon.9 = type { %struct.pmix_envar_t }
%struct.pmix_envar_t = type { ptr, ptr, i8 }
%struct.pmix_events_t = type { %struct.pmix_object_t, i64, ptr, ptr, %struct.pmix_list_t, %struct.pmix_list_t, %struct.pmix_list_t, %struct.pmix_list_t }
%struct.pmix_object_t = type { %union.pthread_mutex_t, ptr, i32, %struct.pmix_tma }
%union.pthread_mutex_t = type { %struct.__pthread_mutex_s }
%struct.__pthread_mutex_s = type { i32, i32, i32, i32, i32, i16, i16, %struct.__pthread_internal_list }
%struct.__pthread_internal_list = type { ptr, ptr }
%struct.pmix_tma = type { ptr, ptr, ptr, ptr, ptr, ptr, ptr, ptr }
%struct.timeval = type { i64, i64 }
%struct.pmix_pointer_array_t = type { %struct.pmix_object_t, i32, i32, i32, i32, i32, ptr, ptr }
%struct.pmix_hotel_t = type { %struct.pmix_object_t, i32, ptr, %struct.timeval, ptr, ptr, ptr, ptr, i32 }
%struct.pmix_list_t = type { %struct.pmix_object_t, %struct.pmix_list_item_t, i64 }
%struct.pmix_list_item_t = type { %struct.pmix_object_t, ptr, ptr, i32 }
%struct.pmix_topology_t = type { ptr, ptr }
%struct.pmix_cpuset_t = type { ptr, ptr }
%struct.pmix_iof_flags_t = type { i8, i8, i8, i8, i8, i8, i8, ptr, ptr, i8, i8, i8, i8, i8, i8 }
%struct.pmix_keyindex_t = type { %struct.pmix_object_t, ptr, i32 }
%struct.pmix_output_desc_t = type { i8, i8, i32, i8, i32, ptr, ptr, i32, ptr, i32, i8, i8, i8, i8, ptr, i32, i32 }
%struct.pmix_lock_t = type { i32, %struct.pmix_mutex_t, %union.pthread_cond_t, i8 }
%struct.pmix_mutex_t = type { %struct.pmix_object_t, %union.pthread_mutex_t }
%union.pthread_cond_t = type { %struct.__pthread_cond_s }
%struct.__pthread_cond_s = type { %union.__atomic_wide_counter, %union.__atomic_wide_counter, [2 x i32], [2 x i32], i32, i32, [2 x i32] }
%union.__atomic_wide_counter = type { i64 }
%struct.pmix_local_query_caddy_t = type { %struct.pmix_query_caddy_t, i64, ptr, i64, ptr, ptr, ptr, i64 }
%struct.pmix_query_caddy_t = type { %struct.pmix_object_t, %struct.event, %struct.pmix_lock_t, i8, i32, ptr, i64, ptr, i64, ptr, ptr, i64, i64, %struct.pmix_list_t, i64, i64, %struct.pmix_byte_object, ptr, ptr, ptr, ptr, ptr, ptr }
%struct.event = type { %struct.event_callback, %union.anon.0, i32, ptr, %union.anon.2, i16, i16, %struct.timeval }
%struct.event_callback = type { %struct.anon, i16, i8, i8, %union.anon, ptr }
%struct.anon = type { ptr, ptr }
%union.anon = type { ptr }
%union.anon.0 = type { %struct.anon.1 }
%struct.anon.1 = type { ptr, ptr }
%union.anon.2 = type { %struct.anon.3 }
%struct.anon.3 = type { %struct.anon.4, %struct.timeval }
%struct.anon.4 = type { ptr, ptr }
%struct.pmix_byte_object = type { ptr, i64 }
%struct.pmix_query = type { ptr, ptr, i64 }
%struct.pmix_info = type { [512 x i8], i32, %struct.pmix_value }

@pmix_globals = external global %struct.pmix_globals_t, align 8
@.str.4 = private unnamed_addr constant [18 x i8] c"pmix.qry.stabiver\00", align 1
@.str.5 = private unnamed_addr constant [4 x i8] c"0.0\00", align 1
@.str.6 = private unnamed_addr constant [18 x i8] c"pmix.qry.prabiver\00", align 1
@pmix_output_info = external global [0 x %struct.pmix_output_desc_t], align 8
@.str.15 = private unnamed_addr constant [55 x i8] c"pmix:query local resolve callback (ninfo %d, local %d)\00", align 1

; Function Attrs: nounwind uwtable
define void @pmix_query_local_resolve_cbfunc(i32 noundef %0, ptr noundef %1, i64 noundef %2, ptr noundef %3, ptr noundef %4, ptr noundef %5) #0 {
  %7 = alloca i32, align 4
  %8 = alloca ptr, align 8
  %9 = alloca i64, align 8
  %10 = alloca ptr, align 8
  %11 = alloca ptr, align 8
  %12 = alloca ptr, align 8
  %13 = alloca ptr, align 8
  %14 = alloca i64, align 8
  %15 = alloca i64, align 8
  %16 = alloca i64, align 8
  %17 = alloca i64, align 8
  store i32 %0, ptr %7, align 4, !tbaa !41
  store ptr %1, ptr %8, align 8, !tbaa !163
  store i64 %2, ptr %9, align 8, !tbaa !46
  store ptr %3, ptr %10, align 8, !tbaa !3
  store ptr %4, ptr %11, align 8, !tbaa !3
  store ptr %5, ptr %12, align 8, !tbaa !3
  call void @llvm.lifetime.start.p0(i64 8, ptr %13) #12
  %18 = load ptr, ptr %10, align 8, !tbaa !3
  store ptr %18, ptr %13, align 8, !tbaa !3
  call void @llvm.lifetime.start.p0(i64 8, ptr %14) #12
  call void @llvm.lifetime.start.p0(i64 8, ptr %15) #12
  call void @llvm.lifetime.start.p0(i64 8, ptr %16) #12
  call void @llvm.lifetime.start.p0(i64 8, ptr %17) #12
  %19 = load i32, ptr getelementptr inbounds nuw (%struct.pmix_globals_t, ptr @pmix_globals, i32 0, i32 15), align 8, !tbaa !149
  %20 = icmp sge i32 %19, 0
  br i1 %20, label %21, label %39

21:                                               ; preds = %6
  %22 = load i32, ptr getelementptr inbounds nuw (%struct.pmix_globals_t, ptr @pmix_globals, i32 0, i32 15), align 8, !tbaa !149
  %23 = icmp slt i32 %22, 64
  br i1 %23, label %24, label %39

24:                                               ; preds = %21
  %25 = load i32, ptr getelementptr inbounds nuw (%struct.pmix_globals_t, ptr @pmix_globals, i32 0, i32 15), align 8, !tbaa !149
  %26 = sext i32 %25 to i64
  %27 = getelementptr inbounds [0 x %struct.pmix_output_desc_t], ptr @pmix_output_info, i64 0, i64 %26
  %28 = getelementptr inbounds nuw %struct.pmix_output_desc_t, ptr %27, i32 0, i32 2
  %29 = load i32, ptr %28, align 4, !tbaa !99
  %30 = icmp sge i32 %29, 2
  br i1 %30, label %31, label %39

31:                                               ; preds = %24
  %32 = load i32, ptr getelementptr inbounds nuw (%struct.pmix_globals_t, ptr @pmix_globals, i32 0, i32 15), align 8, !tbaa !149
  %33 = load i64, ptr %9, align 8, !tbaa !46
  %34 = trunc i64 %33 to i32
  %35 = load ptr, ptr %13, align 8, !tbaa !3
  %36 = getelementptr inbounds nuw %struct.pmix_local_query_caddy_t, ptr %35, i32 0, i32 1
  %37 = load i64, ptr %36, align 8, !tbaa !7
  %38 = trunc i64 %37 to i32
  call void (i32, ptr, ...) @pmix_output(i32 noundef %32, ptr noundef @.str.15, i32 noundef %34, i32 noundef %38)
  br label %39

39:                                               ; preds = %31, %24, %21, %6
  %40 = load i64, ptr %9, align 8, !tbaa !46
  %41 = load ptr, ptr %13, align 8, !tbaa !3
  %42 = getelementptr inbounds nuw %struct.pmix_local_query_caddy_t, ptr %41, i32 0, i32 1
  %43 = load i64, ptr %42, align 8, !tbaa !7
  %44 = add i64 %40, %43
  %45 = load ptr, ptr %13, align 8, !tbaa !3
  %46 = getelementptr inbounds nuw %struct.pmix_local_query_caddy_t, ptr %45, i32 0, i32 7
  store i64 %44, ptr %46, align 8, !tbaa !39
  %47 = load ptr, ptr %13, align 8, !tbaa !3
  %48 = getelementptr inbounds nuw %struct.pmix_local_query_caddy_t, ptr %47, i32 0, i32 7
  %49 = load i64, ptr %48, align 8, !tbaa !39
  %50 = call ptr @PMIx_Info_create(i64 noundef %49)
  %51 = load ptr, ptr %13, align 8, !tbaa !3
  %52 = getelementptr inbounds nuw %struct.pmix_local_query_caddy_t, ptr %51, i32 0, i32 6
  store ptr %50, ptr %52, align 8, !tbaa !38
  store i64 0, ptr %16, align 8, !tbaa !46
  br label %53

53:                                               ; preds = %67, %39
  %54 = load i64, ptr %16, align 8, !tbaa !46
  %55 = load i64, ptr %9, align 8, !tbaa !46
  %56 = icmp ult i64 %54, %55
  br i1 %56, label %57, label %70

57:                                               ; preds = %53
  %58 = load ptr, ptr %13, align 8, !tbaa !3
  %59 = getelementptr inbounds nuw %struct.pmix_local_query_caddy_t, ptr %58, i32 0, i32 6
  %60 = load ptr, ptr %59, align 8, !tbaa !38
  %61 = load i64, ptr %16, align 8, !tbaa !46
  %62 = getelementptr inbounds nuw %struct.pmix_info, ptr %60, i64 %61
  %63 = load ptr, ptr %8, align 8, !tbaa !163
  %64 = load i64, ptr %16, align 8, !tbaa !46
  %65 = getelementptr inbounds nuw %struct.pmix_info, ptr %63, i64 %64
  %66 = call i32 @PMIx_Info_xfer(ptr noundef %62, ptr noundef %65)
  br label %67

67:                                               ; preds = %57
  %68 = load i64, ptr %16, align 8, !tbaa !46
  %69 = add i64 %68, 1
  store i64 %69, ptr %16, align 8, !tbaa !46
  br label %53, !llvm.loop !174

70:                                               ; preds = %53
  store i64 0, ptr %14, align 8, !tbaa !46
  br label %71

71:                                               ; preds = %166, %70
  %72 = load i64, ptr %14, align 8, !tbaa !46
  %73 = load ptr, ptr %13, align 8, !tbaa !3
  %74 = getelementptr inbounds nuw %struct.pmix_local_query_caddy_t, ptr %73, i32 0, i32 3
  %75 = load i64, ptr %74, align 8, !tbaa !37
  %76 = icmp ult i64 %72, %75
  br i1 %76, label %77, label %169

77:                                               ; preds = %71
  store i64 0, ptr %17, align 8, !tbaa !46
  store i64 0, ptr %15, align 8, !tbaa !46
  br label %78

78:                                               ; preds = %156, %77
  %79 = load ptr, ptr %13, align 8, !tbaa !3
  %80 = getelementptr inbounds nuw %struct.pmix_local_query_caddy_t, ptr %79, i32 0, i32 2
  %81 = load ptr, ptr %80, align 8, !tbaa !36
  %82 = load i64, ptr %14, align 8, !tbaa !46
  %83 = getelementptr inbounds nuw %struct.pmix_query, ptr %81, i64 %82
  %84 = getelementptr inbounds nuw %struct.pmix_query, ptr %83, i32 0, i32 0
  %85 = load ptr, ptr %84, align 8, !tbaa !71
  %86 = load i64, ptr %15, align 8, !tbaa !46
  %87 = getelementptr inbounds nuw ptr, ptr %85, i64 %86
  %88 = load ptr, ptr %87, align 8, !tbaa !72
  %89 = icmp ne ptr null, %88
  br i1 %89, label %90, label %159

90:                                               ; preds = %78
  %91 = load ptr, ptr %13, align 8, !tbaa !3
  %92 = getelementptr inbounds nuw %struct.pmix_local_query_caddy_t, ptr %91, i32 0, i32 2
  %93 = load ptr, ptr %92, align 8, !tbaa !36
  %94 = load i64, ptr %14, align 8, !tbaa !46
  %95 = getelementptr inbounds nuw %struct.pmix_query, ptr %93, i64 %94
  %96 = getelementptr inbounds nuw %struct.pmix_query, ptr %95, i32 0, i32 0
  %97 = load ptr, ptr %96, align 8, !tbaa !71
  %98 = load i64, ptr %15, align 8, !tbaa !46
  %99 = getelementptr inbounds nuw ptr, ptr %97, i64 %98
  %100 = load ptr, ptr %99, align 8, !tbaa !72
  %101 = call i32 @strcmp(ptr noundef %100, ptr noundef @.str.4) #13
  %102 = icmp eq i32 0, %101
  br i1 %102, label %103, label %122

103:                                              ; preds = %90
  %104 = load ptr, ptr %13, align 8, !tbaa !3
  %105 = getelementptr inbounds nuw %struct.pmix_local_query_caddy_t, ptr %104, i32 0, i32 6
  %106 = load ptr, ptr %105, align 8, !tbaa !38
  %107 = load i64, ptr %16, align 8, !tbaa !46
  %108 = getelementptr inbounds nuw %struct.pmix_info, ptr %106, i64 %107
  %109 = load ptr, ptr %13, align 8, !tbaa !3
  %110 = getelementptr inbounds nuw %struct.pmix_local_query_caddy_t, ptr %109, i32 0, i32 2
  %111 = load ptr, ptr %110, align 8, !tbaa !36
  %112 = load i64, ptr %14, align 8, !tbaa !46
  %113 = getelementptr inbounds nuw %struct.pmix_query, ptr %111, i64 %112
  %114 = getelementptr inbounds nuw %struct.pmix_query, ptr %113, i32 0, i32 0
  %115 = load ptr, ptr %114, align 8, !tbaa !71
  %116 = load i64, ptr %15, align 8, !tbaa !46
  %117 = getelementptr inbounds nuw ptr, ptr %115, i64 %116
  %118 = load ptr, ptr %117, align 8, !tbaa !72
  %119 = call i32 @PMIx_Info_load(ptr noundef %108, ptr noundef %118, ptr noundef @.str.5, i16 noundef zeroext 3)
  %120 = load i64, ptr %17, align 8, !tbaa !46
  %121 = add i64 %120, 1
  store i64 %121, ptr %17, align 8, !tbaa !46
  br label %155

122:                                              ; preds = %90
  %123 = load ptr, ptr %13, align 8, !tbaa !3
  %124 = getelementptr inbounds nuw %struct.pmix_local_query_caddy_t, ptr %123, i32 0, i32 2
  %125 = load ptr, ptr %124, align 8, !tbaa !36
  %126 = load i64, ptr %14, align 8, !tbaa !46
  %127 = getelementptr inbounds nuw %struct.pmix_query, ptr %125, i64 %126
  %128 = getelementptr inbounds nuw %struct.pmix_query, ptr %127, i32 0, i32 0
  %129 = load ptr, ptr %128, align 8, !tbaa !71
  %130 = load i64, ptr %15, align 8, !tbaa !46
  %131 = getelementptr inbounds nuw ptr, ptr %129, i64 %130
  %132 = load ptr, ptr %131, align 8, !tbaa !72
  %133 = call i32 @strcmp(ptr noundef %132, ptr noundef @.str.6) #13
  %134 = icmp eq i32 0, %133
  br i1 %134, label %135, label %154

135:                                              ; preds = %122
  %136 = load ptr, ptr %13, align 8, !tbaa !3
  %137 = getelementptr inbounds nuw %struct.pmix_local_query_caddy_t, ptr %136, i32 0, i32 6
  %138 = load ptr, ptr %137, align 8, !tbaa !38
  %139 = load i64, ptr %16, align 8, !tbaa !46
  %140 = getelementptr inbounds nuw %struct.pmix_info, ptr %138, i64 %139
  %141 = load ptr, ptr %13, align 8, !tbaa !3
  %142 = getelementptr inbounds nuw %struct.pmix_local_query_caddy_t, ptr %141, i32 0, i32 2
  %143 = load ptr, ptr %142, align 8, !tbaa !36
  %144 = load i64, ptr %14, align 8, !tbaa !46
  %145 = getelementptr inbounds nuw %struct.pmix_query, ptr %143, i64 %144
  %146 = getelementptr inbounds nuw %struct.pmix_query, ptr %145, i32 0, i32 0
  %147 = load ptr, ptr %146, align 8, !tbaa !71
  %148 = load i64, ptr %15, align 8, !tbaa !46
  %149 = getelementptr inbounds nuw ptr, ptr %147, i64 %148
  %150 = load ptr, ptr %149, align 8, !tbaa !72
  %151 = call i32 @PMIx_Info_load(ptr noundef %140, ptr noundef %150, ptr noundef @.str.5, i16 noundef zeroext 3)
  %152 = load i64, ptr %17, align 8, !tbaa !46
  %153 = add i64 %152, 1
  store i64 %153, ptr %17, align 8, !tbaa !46
  br label %154

154:                                              ; preds = %135, %122
  br label %155

155:                                              ; preds = %154, %103
  br label %156

156:                                              ; preds = %155
  %157 = load i64, ptr %15, align 8, !tbaa !46
  %158 = add i64 %157, 1
  store i64 %158, ptr %15, align 8, !tbaa !46
  br label %78, !llvm.loop !175

159:                                              ; preds = %78
  %160 = load i64, ptr %17, align 8, !tbaa !46
  %161 = icmp ugt i64 %160, 0
  br i1 %161, label %162, label %165

162:                                              ; preds = %159
  %163 = load i64, ptr %16, align 8, !tbaa !46
  %164 = add i64 %163, 1
  store i64 %164, ptr %16, align 8, !tbaa !46
  br label %165

165:                                              ; preds = %162, %159
  br label %166

166:                                              ; preds = %165
  %167 = load i64, ptr %14, align 8, !tbaa !46
  %168 = add i64 %167, 1
  store i64 %168, ptr %14, align 8, !tbaa !46
  br label %71, !llvm.loop !176

169:                                              ; preds = %71
  %170 = load ptr, ptr %11, align 8, !tbaa !3
  %171 = icmp ne ptr null, %170
  br i1 %171, label %172, label %175

172:                                              ; preds = %169
  %173 = load ptr, ptr %11, align 8, !tbaa !3
  %174 = load ptr, ptr %12, align 8, !tbaa !3
  call void %173(ptr noundef %174)
  br label %175

175:                                              ; preds = %172, %169
  %176 = load ptr, ptr %13, align 8, !tbaa !3
  %177 = getelementptr inbounds nuw %struct.pmix_local_query_caddy_t, ptr %176, i32 0, i32 4
  %178 = load ptr, ptr %177, align 8, !tbaa !34
  %179 = load i32, ptr %7, align 4, !tbaa !41
  %180 = load ptr, ptr %13, align 8, !tbaa !3
  %181 = getelementptr inbounds nuw %struct.pmix_local_query_caddy_t, ptr %180, i32 0, i32 6
  %182 = load ptr, ptr %181, align 8, !tbaa !38
  %183 = load ptr, ptr %13, align 8, !tbaa !3
  %184 = getelementptr inbounds nuw %struct.pmix_local_query_caddy_t, ptr %183, i32 0, i32 7
  %185 = load i64, ptr %184, align 8, !tbaa !39
  %186 = load ptr, ptr %13, align 8, !tbaa !3
  %187 = getelementptr inbounds nuw %struct.pmix_local_query_caddy_t, ptr %186, i32 0, i32 5
  %188 = load ptr, ptr %187, align 8, !tbaa !35
  %189 = load ptr, ptr %10, align 8, !tbaa !3
  call void %178(i32 noundef %179, ptr noundef %182, i64 noundef %185, ptr noundef %188, ptr noundef @local_resolve_release_cbfunc, ptr noundef %189)
  call void @llvm.lifetime.end.p0(i64 8, ptr %17) #12
  call void @llvm.lifetime.end.p0(i64 8, ptr %16) #12
  call void @llvm.lifetime.end.p0(i64 8, ptr %15) #12
  call void @llvm.lifetime.end.p0(i64 8, ptr %14) #12
  call void @llvm.lifetime.end.p0(i64 8, ptr %13) #12
  ret void
}