; Function Attrs: nounwind uwtable
define void @pmix_query_local_resolve_cbfunc(i32 noundef %0, ptr noundef %1, i64 noundef %2, ptr noundef initializes((936, 952)) %3, ptr noundef readonly captures(address_is_null) %4, ptr noundef %5) #1 {
  %7 = load i32, ptr getelementptr inbounds nuw (i8, ptr @pmix_globals, i64 392), align 8, !tbaa !121
  %or.cond = icmp ult i32 %7, 64
  br i1 %or.cond, label %8, label %18

8:                                                ; preds = %6
  %9 = zext nneg i32 %7 to i64
  %10 = getelementptr inbounds nuw [0 x %struct.pmix_output_desc_t], ptr @pmix_output_info, i64 0, i64 %9, i32 2
  %11 = load i32, ptr %10, align 4, !tbaa !89
  %12 = icmp sgt i32 %11, 1
  br i1 %12, label %13, label %18

13:                                               ; preds = %8
  %14 = trunc i64 %2 to i32
  %15 = getelementptr inbounds nuw i8, ptr %3, i64 896
  %16 = load i64, ptr %15, align 8, !tbaa !132
  %17 = trunc i64 %16 to i32
  tail call void (i32, ptr, ...) @pmix_output(i32 noundef %7, ptr noundef nonnull @.str.15, i32 noundef %14, i32 noundef %17) #14
  br label %18

18:                                               ; preds = %13, %8, %6
  %19 = getelementptr inbounds nuw i8, ptr %3, i64 896
  %20 = load i64, ptr %19, align 8, !tbaa !132
  %21 = add i64 %20, %2
  %22 = getelementptr inbounds nuw i8, ptr %3, i64 944
  store i64 %21, ptr %22, align 8, !tbaa !34
  %23 = tail call ptr @PMIx_Info_create(i64 noundef %21) #14
  %24 = getelementptr inbounds nuw i8, ptr %3, i64 936
  store ptr %23, ptr %24, align 8, !tbaa !33
  %.not70 = icmp eq i64 %2, 0
  br i1 %.not70, label %.preheader60, label %.lr.ph

.preheader60:                                     ; preds = %.lr.ph, %18
  %25 = getelementptr inbounds nuw i8, ptr %3, i64 912
  %26 = load i64, ptr %25, align 8, !tbaa !131
  %.not71 = icmp eq i64 %26, 0
  br i1 %.not71, label %._crit_edge69, label %.preheader.lr.ph

.preheader.lr.ph:                                 ; preds = %.preheader60
  %27 = getelementptr inbounds nuw i8, ptr %3, i64 904
  %.pre = load ptr, ptr %27, align 8, !tbaa !130
  br label %.preheader

.lr.ph:                                           ; preds = %18, %.lr.ph
  %.05161 = phi i64 [ %32, %.lr.ph ], [ 0, %18 ]
  %28 = load ptr, ptr %24, align 8, !tbaa !33
  %29 = getelementptr inbounds nuw %struct.pmix_info, ptr %28, i64 %.05161
  %30 = getelementptr inbounds nuw %struct.pmix_info, ptr %1, i64 %.05161
  %31 = tail call i32 @PMIx_Info_xfer(ptr noundef %29, ptr noundef %30) #14
  %32 = add nuw i64 %.05161, 1
  %exitcond.not = icmp eq i64 %32, %2
  br i1 %exitcond.not, label %.preheader60, label %.lr.ph, !llvm.loop !153

.preheader:                                       ; preds = %.preheader.lr.ph, %._crit_edge
  %33 = phi i64 [ %26, %.preheader.lr.ph ], [ %57, %._crit_edge ]
  %34 = phi ptr [ %.pre, %.preheader.lr.ph ], [ %58, %._crit_edge ]
  %.15268 = phi i64 [ %2, %.preheader.lr.ph ], [ %spec.select, %._crit_edge ]
  %.05467 = phi i64 [ 0, %.preheader.lr.ph ], [ %59, %._crit_edge ]
  %35 = getelementptr inbounds nuw %struct.pmix_query, ptr %34, i64 %.05467
  %36 = load ptr, ptr %35, align 8, !tbaa !63
  %37 = load ptr, ptr %36, align 8, !tbaa !64
  %.not5862 = icmp eq ptr %37, null
  br i1 %.not5862, label %._crit_edge, label %.lr.ph65

.lr.ph65:                                         ; preds = %.preheader, %48
  %38 = phi ptr [ %54, %48 ], [ %37, %.preheader ]
  %.064 = phi i64 [ %.1, %48 ], [ 0, %.preheader ]
  %.05363 = phi i64 [ %49, %48 ], [ 0, %.preheader ]
  %39 = tail call i32 @strcmp(ptr noundef nonnull dereferenceable(1) %38, ptr noundef nonnull dereferenceable(18) @.str.4) #15
  %40 = icmp eq i32 %39, 0
  br i1 %40, label %.sink.split, label %41

41:                                               ; preds = %.lr.ph65
  %42 = tail call i32 @strcmp(ptr noundef nonnull dereferenceable(1) %38, ptr noundef nonnull dereferenceable(18) @.str.6) #15
  %43 = icmp eq i32 %42, 0
  br i1 %43, label %.sink.split, label %48

.sink.split:                                      ; preds = %41, %.lr.ph65
  %44 = load ptr, ptr %24, align 8, !tbaa !33
  %45 = getelementptr inbounds nuw %struct.pmix_info, ptr %44, i64 %.15268
  %46 = tail call i32 @PMIx_Info_load(ptr noundef %45, ptr noundef nonnull %38, ptr noundef nonnull @.str.5, i16 noundef zeroext 3) #14
  %47 = add i64 %.064, 1
  br label %48

48:                                               ; preds = %.sink.split, %41
  %.1 = phi i64 [ %.064, %41 ], [ %47, %.sink.split ]
  %49 = add i64 %.05363, 1
  %50 = load ptr, ptr %27, align 8, !tbaa !130
  %51 = getelementptr inbounds nuw %struct.pmix_query, ptr %50, i64 %.05467
  %52 = load ptr, ptr %51, align 8, !tbaa !63
  %53 = getelementptr inbounds nuw ptr, ptr %52, i64 %49
  %54 = load ptr, ptr %53, align 8, !tbaa !64
  %.not58 = icmp eq ptr %54, null
  br i1 %.not58, label %._crit_edge.loopexit, label %.lr.ph65, !llvm.loop !154

._crit_edge.loopexit:                             ; preds = %48
  %.pre72 = load i64, ptr %25, align 8, !tbaa !131
  %55 = icmp ne i64 %.1, 0
  %56 = zext i1 %55 to i64
  br label %._crit_edge

._crit_edge:                                      ; preds = %._crit_edge.loopexit, %.preheader
  %57 = phi i64 [ %33, %.preheader ], [ %.pre72, %._crit_edge.loopexit ]
  %58 = phi ptr [ %34, %.preheader ], [ %50, %._crit_edge.loopexit ]
  %.0.lcssa = phi i64 [ 0, %.preheader ], [ %56, %._crit_edge.loopexit ]
  %spec.select = add i64 %.15268, %.0.lcssa
  %59 = add nuw i64 %.05467, 1
  %60 = icmp ult i64 %59, %57
  br i1 %60, label %.preheader, label %._crit_edge69, !llvm.loop !155

._crit_edge69:                                    ; preds = %._crit_edge, %.preheader60
  %.not = icmp eq ptr %4, null
  br i1 %.not, label %62, label %61

61:                                               ; preds = %._crit_edge69
  tail call void %4(ptr noundef %5) #14
  br label %62

62:                                               ; preds = %61, %._crit_edge69
  %63 = getelementptr inbounds nuw i8, ptr %3, i64 920
  %64 = load ptr, ptr %63, align 8, !tbaa !128
  %65 = load ptr, ptr %24, align 8, !tbaa !33
  %66 = load i64, ptr %22, align 8, !tbaa !34
  %67 = getelementptr inbounds nuw i8, ptr %3, i64 928
  %68 = load ptr, ptr %67, align 8, !tbaa !129
  tail call void %64(i32 noundef %0, ptr noundef %65, i64 noundef %66, ptr noundef %68, ptr noundef nonnull @local_resolve_release_cbfunc, ptr noundef nonnull %3) #14
  ret void
}